target datalayout = "e-m:e-p270:32:32-p271:32:32-p272:64:64-i64:64-i128:128-f80:128-n8:16:32:64-S128"
target triple = "x86_64-pc-linux-gnu"

%"class.cv::gapi::wip::QueueSourceBase" = type { %"class.cv::gapi::wip::IStreamSource", %"class.std::shared_ptr" }
%"class.cv::gapi::wip::IStreamSource" = type { ptr, %"class.std::enable_shared_from_this" }
%"class.std::enable_shared_from_this" = type { %"class.std::weak_ptr" }
%"class.std::weak_ptr" = type { %"class.std::__weak_ptr" }
%"class.std::__weak_ptr" = type { ptr, %"class.std::__weak_count" }
%"class.std::__weak_count" = type { ptr }
%"class.std::shared_ptr" = type { %"class.std::__shared_ptr" }
%"class.std::__shared_ptr" = type { ptr, %"class.std::__shared_count" }
%"class.std::__shared_count" = type { ptr }
%"class.cv::gapi::wip::QueueSourceBase::Priv" = type <{ %"class.cv::util::variant", %"class.cv::gapi::own::concurrent_bounded_queue", i64, %"struct.std::atomic", [7 x i8] }>
%"class.cv::util::variant" = type { i64, [1 x %"union.std::aligned_storage<48, 8>::type"] }
%"union.std::aligned_storage<48, 8>::type" = type { [48 x i8] }
%"class.cv::gapi::own::concurrent_bounded_queue" = type { %"class.std::queue", i64, %"class.std::mutex", %"class.std::condition_variable", %"class.std::condition_variable" }
%"class.std::queue" = type { %"class.std::deque" }
%"class.std::deque" = type { %"class.std::_Deque_base" }
%"class.std::_Deque_base" = type { %"struct.std::_Deque_base<cv::GRunArg, std::allocator<cv::GRunArg>>::_Deque_impl" }
%"struct.std::_Deque_base<cv::GRunArg, std::allocator<cv::GRunArg>>::_Deque_impl" = type { %"struct.std::_Deque_base<cv::GRunArg, std::allocator<cv::GRunArg>>::_Deque_impl_data" }
%"struct.std::_Deque_base<cv::GRunArg, std::allocator<cv::GRunArg>>::_Deque_impl_data" = type { ptr, i64, %"struct.std::_Deque_iterator", %"struct.std::_Deque_iterator" }
%"struct.std::_Deque_iterator" = type { ptr, ptr, ptr, ptr }
%"class.std::mutex" = type { %"class.std::__mutex_base" }
%"class.std::__mutex_base" = type { %union.pthread_mutex_t }
%union.pthread_mutex_t = type { %struct.__pthread_mutex_s }
%struct.__pthread_mutex_s = type { i32, i32, i32, i32, i32, i16, i16, %struct.__pthread_internal_list }
%struct.__pthread_internal_list = type { ptr, ptr }
%"class.std::condition_variable" = type { %"class.std::__condvar" }
%"class.std::__condvar" = type { %union.pthread_cond_t }
%union.pthread_cond_t = type { %struct.__pthread_cond_s }
%struct.__pthread_cond_s = type { %union.__atomic_wide_counter, %union.__atomic_wide_counter, [2 x i32], [2 x i32], i32, i32, [2 x i32] }
%union.__atomic_wide_counter = type { i64 }
%"struct.std::atomic" = type { %"struct.std::__atomic_base" }
%"struct.std::__atomic_base" = type { i8 }
%"struct.cv::GRunArg" = type { %"class.cv::util::variant.4", %"class.std::unordered_map" }
%"class.cv::util::variant.4" = type { i64, [1 x %"union.std::aligned_storage<96, 8>::type"] }
%"union.std::aligned_storage<96, 8>::type" = type { [96 x i8] }
%"class.std::unordered_map" = type { %"class.std::_Hashtable" }
%"class.std::_Hashtable" = type { ptr, i64, %"struct.std::__detail::_Hash_node_base", i64, %"struct.std::__detail::_Prime_rehash_policy", ptr }
%"struct.std::__detail::_Hash_node_base" = type { ptr }
%"struct.std::__detail::_Prime_rehash_policy" = type { float, i64 }

; Function Attrs: mustprogress nounwind uwtable
define linkonce_odr hidden noundef ptr @_ZNKSt12__shared_ptrIN2cv4gapi3wip15QueueSourceBase4PrivELN9__gnu_cxx12_Lock_policyE2EE3getEv(ptr noundef nonnull align 8 dereferenceable(16) %0) #5 comdat align 2 {
  %2 = alloca ptr, align 8
  store ptr %0, ptr %2, align 8
  %3 = load ptr, ptr %2, align 8
  %4 = getelementptr inbounds %"class.std::__shared_ptr", ptr %3, i32 0, i32 0
  %5 = load ptr, ptr %4, align 8
  ret ptr %5
}

; Function Attrs: mustprogress nounwind uwtable
define linkonce_odr noundef i32 @_ZStanSt12memory_orderSt23__memory_order_modifier(i32 noundef %0, i32 noundef %1) #5 comdat {
  %3 = alloca i32, align 4
  %4 = alloca i32, align 4
  store i32 %0, ptr %3, align 4
  store i32 %1, ptr %4, align 4
  %5 = load i32, ptr %3, align 4
  %6 = load i32, ptr %4, align 4
  %7 = and i32 %5, %6
  ret i32 %7
}

; Function Attrs: mustprogress nounwind uwtable
define linkonce_odr hidden noundef ptr @_ZNKSt19__shared_ptr_accessIN2cv4gapi3wip15QueueSourceBase4PrivELN9__gnu_cxx12_Lock_policyE2ELb0ELb0EE6_M_getEv(ptr noundef nonnull align 1 dereferenceable(1) %0) #5 comdat align 2 {
  %2 = alloca ptr, align 8
  store ptr %0, ptr %2, align 8
  %3 = load ptr, ptr %2, align 8
  %4 = call noundef ptr @_ZNKSt12__shared_ptrIN2cv4gapi3wip15QueueSourceBase4PrivELN9__gnu_cxx12_Lock_policyE2EE3getEv(ptr noundef nonnull align 8 dereferenceable(16) %3) #3
  ret ptr %4
}

; Function Attrs: mustprogress nounwind uwtable
define linkonce_odr hidden void @_ZNSt6atomicIbE5storeEbSt12memory_order(ptr noundef nonnull align 1 dereferenceable(1) %0, i1 noundef zeroext %1, i32 noundef %2) #5 comdat align 2 personality ptr @__gxx_personality_v0 {
  %4 = alloca ptr, align 8
  %5 = alloca i8, align 1
  %6 = alloca i32, align 4
  %7 = alloca i32, align 4
  %8 = alloca i8, align 1
  %9 = alloca ptr, align 8
  %10 = alloca i8, align 1
  %11 = alloca i32, align 4
  store ptr %0, ptr %9, align 8
  %12 = zext i1 %1 to i8
  store i8 %12, ptr %10, align 1
  store i32 %2, ptr %11, align 4
  %13 = load ptr, ptr %9, align 8
  %14 = getelementptr inbounds %"struct.std::atomic", ptr %13, i32 0, i32 0
  %15 = load i8, ptr %10, align 1
  %16 = trunc i8 %15 to i1
  %17 = load i32, ptr %11, align 4
  store ptr %14, ptr %4, align 8
  %18 = zext i1 %16 to i8
  store i8 %18, ptr %5, align 1
  store i32 %17, ptr %6, align 4
  %19 = load ptr, ptr %4, align 8
  %20 = load i32, ptr %6, align 4
  %21 = invoke noundef i32 @_ZStanSt12memory_orderSt23__memory_order_modifier(i32 noundef %20, i32 noundef 65535)
          to label %22 unwind label %33

22:                                               ; preds = %3
  store i32 %21, ptr %7, align 4
  %23 = load i32, ptr %6, align 4
  %24 = load i8, ptr %5, align 1
  %25 = trunc i8 %24 to i1
  %26 = zext i1 %25 to i8
  store i8 %26, ptr %8, align 1
  switch i32 %23, label %27 [
    i32 3, label %29
    i32 5, label %31
  ]

27:                                               ; preds = %22
  %28 = load i8, ptr %8, align 1
  store atomic i8 %28, ptr %19 monotonic, align 1
  br label %36

29:                                               ; preds = %22
  %30 = load i8, ptr %8, align 1
  store atomic i8 %30, ptr %19 release, align 1
  br label %36

31:                                               ; preds = %22
  %32 = load i8, ptr %8, align 1
  store atomic i8 %32, ptr %19 seq_cst, align 1
  br label %36

33:                                               ; preds = %3
  %34 = landingpad { ptr, i32 }
          catch ptr null
  %35 = extractvalue { ptr, i32 } %34, 0
  call void @__clang_call_terminate(ptr %35) #16
  unreachable

36:                                               ; preds = %31, %29, %27
  ret void
}

; Function Attrs: mustprogress nounwind uwtable
define linkonce_odr hidden noundef ptr @_ZNKSt19__shared_ptr_accessIN2cv4gapi3wip15QueueSourceBase4PrivELN9__gnu_cxx12_Lock_policyE2ELb0ELb0EEptEv(ptr noundef nonnull align 1 dereferenceable(1) %0) #5 comdat align 2 {
  %2 = alloca ptr, align 8
  store ptr %0, ptr %2, align 8
  %3 = load ptr, ptr %2, align 8
  %4 = call noundef ptr @_ZNKSt19__shared_ptr_accessIN2cv4gapi3wip15QueueSourceBase4PrivELN9__gnu_cxx12_Lock_policyE2ELb0ELb0EE6_M_getEv(ptr noundef nonnull align 1 dereferenceable(1) %3) #3
  ret ptr %4
}

; Function Attrs: mustprogress uwtable
define void @_ZN2cv4gapi3wip15QueueSourceBase4haltEv(ptr noundef nonnull align 8 dereferenceable(40) %0) unnamed_addr #4 align 2 personality ptr @__gxx_personality_v0 {
  %2 = alloca ptr, align 8
  %3 = alloca %"struct.cv::GRunArg", align 8
  %4 = alloca ptr, align 8
  %5 = alloca i32, align 4
  store ptr %0, ptr %2, align 8
  %6 = load ptr, ptr %2, align 8
  %7 = getelementptr inbounds %"class.cv::gapi::wip::QueueSourceBase", ptr %6, i32 0, i32 1
  %8 = call noundef ptr @_ZNKSt19__shared_ptr_accessIN2cv4gapi3wip15QueueSourceBase4PrivELN9__gnu_cxx12_Lock_policyE2ELb0ELb0EEptEv(ptr noundef nonnull align 1 dereferenceable(1) %7) #3
  %9 = getelementptr inbounds %"class.cv::gapi::wip::QueueSourceBase::Priv", ptr %8, i32 0, i32 3
  call void @_ZNSt6atomicIbE5storeEbSt12memory_order(ptr noundef nonnull align 1 dereferenceable(1) %9, i1 noundef zeroext true, i32 noundef 5) #3
  %10 = getelementptr inbounds %"class.cv::gapi::wip::QueueSourceBase", ptr %6, i32 0, i32 1
  %11 = call noundef ptr @_ZNKSt19__shared_ptr_accessIN2cv4gapi3wip15QueueSourceBase4PrivELN9__gnu_cxx12_Lock_policyE2ELb0ELb0EEptEv(ptr noundef nonnull align 1 dereferenceable(1) %10) #3
  %12 = getelementptr inbounds %"class.cv::gapi::wip::QueueSourceBase::Priv", ptr %11, i32 0, i32 1
  call void @_ZN2cv7GRunArgC1Ev(ptr noundef nonnull align 8 dereferenceable(160) %3)
  invoke void @_ZN2cv4gapi3own24concurrent_bounded_queueINS_7GRunArgEE4pushERKS3_(ptr noundef nonnull align 8 dereferenceable(224) %12, ptr noundef nonnull align 8 dereferenceable(160) %3)
          to label %13 unwind label %14

13:                                               ; preds = %1
  call void @_ZN2cv7GRunArgD2Ev(ptr noundef nonnull align 8 dereferenceable(160) %3) #3
  ret void

14:                                               ; preds = %1
  %15 = landingpad { ptr, i32 }
          cleanup
  %16 = extractvalue { ptr, i32 } %15, 0
  store ptr %16, ptr %4, align 8
  %17 = extractvalue { ptr, i32 } %15, 1
  store i32 %17, ptr %5, align 4
  call void @_ZN2cv7GRunArgD2Ev(ptr noundef nonnull align 8 dereferenceable(160) %3) #3
  br label %18

18:                                               ; preds = %14
  %19 = load ptr, ptr %4, align 8
  %20 = load i32, ptr %5, align 4
  %21 = insertvalue { ptr, i32 } poison, ptr %19, 0
  %22 = insertvalue { ptr, i32 } %21, i32 %20, 1
  resume { ptr, i32 } %22
}