; Function Attrs: mustprogress uwtable
define void @_ZN2cv4gapi3wip15QueueSourceBase4haltEv(ptr nocapture noundef nonnull readonly align 8 dereferenceable(40) %0) unnamed_addr #3 align 2 personality ptr @__gxx_personality_v0 {
  %2 = alloca %"struct.cv::GRunArg", align 8
  %3 = getelementptr inbounds i8, ptr %0, i64 24
  %4 = load ptr, ptr %3, align 8
  %5 = getelementptr inbounds i8, ptr %4, i64 288
  store atomic i8 1, ptr %5 seq_cst, align 1
  %6 = load ptr, ptr %3, align 8
  %7 = getelementptr inbounds i8, ptr %6, i64 56
  call void @_ZN2cv7GRunArgC1Ev(ptr noundef nonnull align 8 dereferenceable(160) %2)
  invoke void @_ZN2cv4gapi3own24concurrent_bounded_queueINS_7GRunArgEE4pushERKS3_(ptr noundef nonnull align 8 dereferenceable(224) %7, ptr noundef nonnull align 8 dereferenceable(160) %2)
          to label %8 unwind label %34

8:                                                ; preds = %1
  %9 = getelementptr inbounds i8, ptr %2, i64 104
  %10 = getelementptr inbounds i8, ptr %2, i64 120
  %11 = load ptr, ptr %10, align 8
  %.not5.i.i.i.i.i = icmp eq ptr %11, null
  br i1 %.not5.i.i.i.i.i, label %_ZNSt10_HashtableINSt7__cxx1112basic_stringIcSt11char_traitsIcESaIcEEESt4pairIKS5_N2cv4util3anyEESaISB_ENSt8__detail10_Select1stESt8equal_toIS5_ESt4hashIS5_ENSD_18_Mod_range_hashingENSD_20_Default_ranged_hashENSD_20_Prime_rehash_policyENSD_17_Hashtable_traitsILb1ELb0ELb1EEEE5clearEv.exit.i.i.i, label %.lr.ph.i.i.i.i.i

.lr.ph.i.i.i.i.i:                                 ; preds = %8, %_ZNSt8__detail16_Hashtable_allocISaINS_10_Hash_nodeISt4pairIKNSt7__cxx1112basic_stringIcSt11char_traitsIcESaIcEEEN2cv4util3anyEELb1EEEEE18_M_deallocate_nodeEPSE_.exit.i.i.i.i.i
  %.06.i.i.i.i.i = phi ptr [ %12, %_ZNSt8__detail16_Hashtable_allocISaINS_10_Hash_nodeISt4pairIKNSt7__cxx1112basic_stringIcSt11char_traitsIcESaIcEEEN2cv4util3anyEELb1EEEEE18_M_deallocate_nodeEPSE_.exit.i.i.i.i.i ], [ %11, %8 ]
  %12 = load ptr, ptr %.06.i.i.i.i.i, align 8
  %13 = getelementptr inbounds i8, ptr %.06.i.i.i.i.i, i64 40
  %14 = load ptr, ptr %13, align 8
  %.not.i.i.i.i.i.i.i.i.i.i.i = icmp eq ptr %14, null
  br i1 %.not.i.i.i.i.i.i.i.i.i.i.i, label %_ZNSt8__detail16_Hashtable_allocISaINS_10_Hash_nodeISt4pairIKNSt7__cxx1112basic_stringIcSt11char_traitsIcESaIcEEEN2cv4util3anyEELb1EEEEE18_M_deallocate_nodeEPSE_.exit.i.i.i.i.i, label %_ZNKSt14default_deleteIN2cv4util3any6holderEEclEPS3_.exit.i.i.i.i.i.i.i.i.i.i.i

_ZNKSt14default_deleteIN2cv4util3any6holderEEclEPS3_.exit.i.i.i.i.i.i.i.i.i.i.i: ; preds = %.lr.ph.i.i.i.i.i
  %15 = load ptr, ptr %14, align 8
  %16 = getelementptr inbounds i8, ptr %15, i64 16
  %17 = load ptr, ptr %16, align 8
  call void %17(ptr noundef nonnull align 8 dereferenceable(8) %14) #18
  br label %_ZNSt8__detail16_Hashtable_allocISaINS_10_Hash_nodeISt4pairIKNSt7__cxx1112basic_stringIcSt11char_traitsIcESaIcEEEN2cv4util3anyEELb1EEEEE18_M_deallocate_nodeEPSE_.exit.i.i.i.i.i

_ZNSt8__detail16_Hashtable_allocISaINS_10_Hash_nodeISt4pairIKNSt7__cxx1112basic_stringIcSt11char_traitsIcESaIcEEEN2cv4util3anyEELb1EEEEE18_M_deallocate_nodeEPSE_.exit.i.i.i.i.i: ; preds = %_ZNKSt14default_deleteIN2cv4util3any6holderEEclEPS3_.exit.i.i.i.i.i.i.i.i.i.i.i, %.lr.ph.i.i.i.i.i
  %18 = getelementptr inbounds i8, ptr %.06.i.i.i.i.i, i64 8
  store ptr null, ptr %13, align 8
  call void @_ZNSt7__cxx1112basic_stringIcSt11char_traitsIcESaIcEED1Ev(ptr noundef nonnull align 8 dereferenceable(32) %18) #18
  call void @_ZdlPv(ptr noundef nonnull %.06.i.i.i.i.i) #17
  %.not.i.i.i.i.i = icmp eq ptr %12, null
  br i1 %.not.i.i.i.i.i, label %_ZNSt10_HashtableINSt7__cxx1112basic_stringIcSt11char_traitsIcESaIcEEESt4pairIKS5_N2cv4util3anyEESaISB_ENSt8__detail10_Select1stESt8equal_toIS5_ESt4hashIS5_ENSD_18_Mod_range_hashingENSD_20_Default_ranged_hashENSD_20_Prime_rehash_policyENSD_17_Hashtable_traitsILb1ELb0ELb1EEEE5clearEv.exit.i.i.i, label %.lr.ph.i.i.i.i.i, !llvm.loop !7

_ZNSt10_HashtableINSt7__cxx1112basic_stringIcSt11char_traitsIcESaIcEEESt4pairIKS5_N2cv4util3anyEESaISB_ENSt8__detail10_Select1stESt8equal_toIS5_ESt4hashIS5_ENSD_18_Mod_range_hashingENSD_20_Default_ranged_hashENSD_20_Prime_rehash_policyENSD_17_Hashtable_traitsILb1ELb0ELb1EEEE5clearEv.exit.i.i.i: ; preds = %_ZNSt8__detail16_Hashtable_allocISaINS_10_Hash_nodeISt4pairIKNSt7__cxx1112basic_stringIcSt11char_traitsIcESaIcEEEN2cv4util3anyEELb1EEEEE18_M_deallocate_nodeEPSE_.exit.i.i.i.i.i, %8
  %19 = load ptr, ptr %9, align 8
  %20 = getelementptr inbounds i8, ptr %2, i64 112
  %21 = load i64, ptr %20, align 8
  %22 = shl i64 %21, 3
  call void @llvm.memset.p0.i64(ptr align 8 %19, i8 0, i64 %22, i1 false)
  call void @llvm.memset.p0.i64(ptr noundef nonnull align 8 dereferenceable(16) %10, i8 0, i64 16, i1 false)
  %23 = load ptr, ptr %9, align 8
  %24 = getelementptr inbounds i8, ptr %2, i64 152
  %25 = icmp eq ptr %24, %23
  br i1 %25, label %_ZNSt13unordered_mapINSt7__cxx1112basic_stringIcSt11char_traitsIcESaIcEEEN2cv4util3anyESt4hashIS5_ESt8equal_toIS5_ESaISt4pairIKS5_S8_EEED2Ev.exit.i, label %26

26:                                               ; preds = %_ZNSt10_HashtableINSt7__cxx1112basic_stringIcSt11char_traitsIcESaIcEEESt4pairIKS5_N2cv4util3anyEESaISB_ENSt8__detail10_Select1stESt8equal_toIS5_ESt4hashIS5_ENSD_18_Mod_range_hashingENSD_20_Default_ranged_hashENSD_20_Prime_rehash_policyENSD_17_Hashtable_traitsILb1ELb0ELb1EEEE5clearEv.exit.i.i.i
  call void @_ZdlPv(ptr noundef %23) #17
  br label %_ZNSt13unordered_mapINSt7__cxx1112basic_stringIcSt11char_traitsIcESaIcEEEN2cv4util3anyESt4hashIS5_ESt8equal_toIS5_ESaISt4pairIKS5_S8_EEED2Ev.exit.i

_ZNSt13unordered_mapINSt7__cxx1112basic_stringIcSt11char_traitsIcESaIcEEEN2cv4util3anyESt4hashIS5_ESt8equal_toIS5_ESaISt4pairIKS5_S8_EEED2Ev.exit.i: ; preds = %26, %_ZNSt10_HashtableINSt7__cxx1112basic_stringIcSt11char_traitsIcESaIcEEESt4pairIKS5_N2cv4util3anyEESaISB_ENSt8__detail10_Select1stESt8equal_toIS5_ESt4hashIS5_ENSD_18_Mod_range_hashingENSD_20_Default_ranged_hashENSD_20_Prime_rehash_policyENSD_17_Hashtable_traitsILb1ELb0ELb1EEEE5clearEv.exit.i.i.i
  %27 = load i64, ptr %2, align 8
  %28 = getelementptr inbounds [8 x ptr], ptr @constinit.6, i64 0, i64 %27
  %29 = load ptr, ptr %28, align 8
  %30 = getelementptr inbounds i8, ptr %2, i64 8
  invoke void %29(ptr noundef nonnull %30)
          to label %_ZN2cv7GRunArgD2Ev.exit unwind label %31

31:                                               ; preds = %_ZNSt13unordered_mapINSt7__cxx1112basic_stringIcSt11char_traitsIcESaIcEEEN2cv4util3anyESt4hashIS5_ESt8equal_toIS5_ESaISt4pairIKS5_S8_EEED2Ev.exit.i
  %32 = landingpad { ptr, i32 }
          catch ptr null
  %33 = extractvalue { ptr, i32 } %32, 0
  call void @__clang_call_terminate(ptr %33) #19
  unreachable

_ZN2cv7GRunArgD2Ev.exit:                          ; preds = %_ZNSt13unordered_mapINSt7__cxx1112basic_stringIcSt11char_traitsIcESaIcEEEN2cv4util3anyESt4hashIS5_ESt8equal_toIS5_ESaISt4pairIKS5_S8_EEED2Ev.exit.i
  ret void

34:                                               ; preds = %1
  %35 = landingpad { ptr, i32 }
          cleanup
  call void @_ZN2cv7GRunArgD2Ev(ptr noundef nonnull align 8 dereferenceable(160) %2) #18
  resume { ptr, i32 } %35
}